target datalayout = "e-m:e-p270:32:32-p271:32:32-p272:64:64-i64:64-i128:128-f80:128-n8:16:32:64-S128"
target triple = "x86_64-unknown-linux-gnu"

%struct.timespec = type { i64, i64 }
%"class.EA::StdC::Stopwatch" = type { i64, i64, i32, float }
%"class.EA::StdC::LimitStopwatch" = type { %"class.EA::StdC::Stopwatch", i64 }

; Function Attrs: mustprogress nounwind uwtable
define linkonce_odr dso_local noundef i64 @_ZN2EA4StdC9Stopwatch11GetCPUCycleEv() #1 comdat align 2 {
entry:
  %0 = call i64 @llvm.x86.rdtsc()
  ret i64 %0
}

; Function Attrs: mustprogress nounwind uwtable
define linkonce_odr dso_local void @_ZN2EA4StdC9Stopwatch5StartEv(ptr noundef nonnull align 8 dereferenceable(24) %this) #1 comdat align 2 {
entry:
  %this.addr = alloca ptr, align 8
  store ptr %this, ptr %this.addr, align 8
  %this1 = load ptr, ptr %this.addr, align 8
  %mnStartTime = getelementptr inbounds %"class.EA::StdC::Stopwatch", ptr %this1, i32 0, i32 0
  %0 = load i64, ptr %mnStartTime, align 8
  %tobool = icmp ne i64 %0, 0
  br i1 %tobool, label %if.end6, label %if.then

if.then:                                          ; preds = %entry
  %mnUnits = getelementptr inbounds %"class.EA::StdC::Stopwatch", ptr %this1, i32 0, i32 2
  %1 = load i32, ptr %mnUnits, align 8
  %cmp = icmp eq i32 %1, 1
  br i1 %cmp, label %if.then2, label %if.else

if.then2:                                         ; preds = %if.then
  %call = call noundef i64 @_ZN2EA4StdC9Stopwatch11GetCPUCycleEv()
  %mnStartTime3 = getelementptr inbounds %"class.EA::StdC::Stopwatch", ptr %this1, i32 0, i32 0
  store i64 %call, ptr %mnStartTime3, align 8
  br label %if.end

if.else:                                          ; preds = %if.then
  %call4 = call noundef i64 @_ZN2EA4StdC9Stopwatch17GetStopwatchCycleEv()
  %mnStartTime5 = getelementptr inbounds %"class.EA::StdC::Stopwatch", ptr %this1, i32 0, i32 0
  store i64 %call4, ptr %mnStartTime5, align 8
  br label %if.end

if.end:                                           ; preds = %if.else, %if.then2
  br label %if.end6

if.end6:                                          ; preds = %if.end, %entry
  ret void
}

; Function Attrs: mustprogress nounwind uwtable
define linkonce_odr dso_local noundef i64 @_ZN2EA4StdC9Stopwatch17GetStopwatchCycleEv() #1 comdat align 2 {
entry:
  %ts = alloca %struct.timespec, align 8
  %result = alloca i32, align 4
  %nNanoseconds = alloca i64, align 8
  %call = call i32 @clock_gettime(i32 noundef 1, ptr noundef %ts) #6
  store i32 %call, ptr %result, align 4
  %0 = load i32, ptr %result, align 4
  %cmp = icmp eq i32 %0, 22
  br i1 %cmp, label %if.then, label %if.end

if.then:                                          ; preds = %entry
  %call1 = call i32 @clock_gettime(i32 noundef 0, ptr noundef %ts) #6
  store i32 %call1, ptr %result, align 4
  br label %if.end

if.end:                                           ; preds = %if.then, %entry
  %tv_nsec = getelementptr inbounds %struct.timespec, ptr %ts, i32 0, i32 1
  %1 = load i64, ptr %tv_nsec, align 8
  %tv_sec = getelementptr inbounds %struct.timespec, ptr %ts, i32 0, i32 0
  %2 = load i64, ptr %tv_sec, align 8
  %mul = mul i64 %2, 1000000000
  %add = add i64 %1, %mul
  store i64 %add, ptr %nNanoseconds, align 8
  %3 = load i64, ptr %nNanoseconds, align 8
  ret i64 %3
}

; Function Attrs: mustprogress uwtable
define dso_local void @_ZN2EA4StdC14LimitStopwatch12SetTimeLimitEmb(ptr noundef nonnull align 8 dereferenceable(32) %this, i64 noundef %nLimit, i1 noundef zeroext %bStartImmediately) #0 align 2 {
entry:
  %this.addr = alloca ptr, align 8
  %nLimit.addr = alloca i64, align 8
  %bStartImmediately.addr = alloca i8, align 1
  %nCurrentTime = alloca i64, align 8
  store ptr %this, ptr %this.addr, align 8
  store i64 %nLimit, ptr %nLimit.addr, align 8
  %frombool = zext i1 %bStartImmediately to i8
  store i8 %frombool, ptr %bStartImmediately.addr, align 1
  %this1 = load ptr, ptr %this.addr, align 8
  %call = call noundef i64 @_ZN2EA4StdC9Stopwatch17GetStopwatchCycleEv()
  store i64 %call, ptr %nCurrentTime, align 8
  %0 = load i64, ptr %nCurrentTime, align 8
  %1 = load i64, ptr %nLimit.addr, align 8
  %conv = uitofp i64 %1 to float
  %mfStopwatchCyclesToUnitsCoefficient = getelementptr inbounds %"class.EA::StdC::Stopwatch", ptr %this1, i32 0, i32 3
  %2 = load float, ptr %mfStopwatchCyclesToUnitsCoefficient, align 4
  %div = fdiv float %conv, %2
  %conv2 = fptoui float %div to i64
  %add = add i64 %0, %conv2
  %mnEndTime = getelementptr inbounds %"class.EA::StdC::LimitStopwatch", ptr %this1, i32 0, i32 1
  store i64 %add, ptr %mnEndTime, align 8
  %3 = load i8, ptr %bStartImmediately.addr, align 1
  %tobool = trunc i8 %3 to i1
  br i1 %tobool, label %if.then, label %if.end

if.then:                                          ; preds = %entry
  call void @_ZN2EA4StdC9Stopwatch5StartEv(ptr noundef nonnull align 8 dereferenceable(24) %this1)
  br label %if.end

if.end:                                           ; preds = %if.then, %entry
  ret void
}