; Function Attrs: mustprogress nounwind uwtable
define dso_local void @_ZN2EA4StdC14LimitStopwatch12SetTimeLimitEmb(ptr noundef nonnull align 8 captures(none) dereferenceable(32) initializes((24, 32)) %this, i64 noundef %nLimit, i1 noundef zeroext %bStartImmediately) local_unnamed_addr #0 align 2 {
entry:
  %ts.i.i = alloca %struct.timespec, align 8
  %ts.i = alloca %struct.timespec, align 8
  call void @llvm.lifetime.start.p0(i64 16, ptr nonnull %ts.i)
  %call.i = call i32 @clock_gettime(i32 noundef 1, ptr noundef nonnull %ts.i) #7
  %cmp.i = icmp eq i32 %call.i, 22
  br i1 %cmp.i, label %if.then.i, label %_ZN2EA4StdC9Stopwatch17GetStopwatchCycleEv.exit

if.then.i:                                        ; preds = %entry
  %call1.i = call i32 @clock_gettime(i32 noundef 0, ptr noundef nonnull %ts.i) #7
  br label %_ZN2EA4StdC9Stopwatch17GetStopwatchCycleEv.exit

_ZN2EA4StdC9Stopwatch17GetStopwatchCycleEv.exit:  ; preds = %entry, %if.then.i
  %tv_nsec.i = getelementptr inbounds nuw i8, ptr %ts.i, i64 8
  %0 = load i64, ptr %tv_nsec.i, align 8
  %1 = load i64, ptr %ts.i, align 8
  %mul.i = mul i64 %1, 1000000000
  %add.i = add i64 %mul.i, %0
  call void @llvm.lifetime.end.p0(i64 16, ptr nonnull %ts.i)
  %conv = uitofp i64 %nLimit to float
  %mfStopwatchCyclesToUnitsCoefficient = getelementptr inbounds nuw i8, ptr %this, i64 20
  %2 = load float, ptr %mfStopwatchCyclesToUnitsCoefficient, align 4
  %div = fdiv float %conv, %2
  %conv2 = fptoui float %div to i64
  %add = add i64 %add.i, %conv2
  %mnEndTime = getelementptr inbounds nuw i8, ptr %this, i64 24
  store i64 %add, ptr %mnEndTime, align 8
  %3 = load i64, ptr %this, align 8
  %tobool.not.i = icmp eq i64 %3, 0
  %or.cond = select i1 %bStartImmediately, i1 %tobool.not.i, i1 false
  br i1 %or.cond, label %if.then.i1, label %if.end

if.then.i1:                                       ; preds = %_ZN2EA4StdC9Stopwatch17GetStopwatchCycleEv.exit
  %mnUnits.i = getelementptr inbounds nuw i8, ptr %this, i64 16
  %4 = load i32, ptr %mnUnits.i, align 8
  %cmp.i2 = icmp eq i32 %4, 1
  br i1 %cmp.i2, label %if.then2.i, label %if.else.i

if.then2.i:                                       ; preds = %if.then.i1
  %5 = call noundef i64 @llvm.x86.rdtsc()
  br label %if.end6.sink.split.i

if.else.i:                                        ; preds = %if.then.i1
  call void @llvm.lifetime.start.p0(i64 16, ptr nonnull %ts.i.i)
  %call.i.i = call i32 @clock_gettime(i32 noundef 1, ptr noundef nonnull %ts.i.i) #7
  %cmp.i.i = icmp eq i32 %call.i.i, 22
  br i1 %cmp.i.i, label %if.then.i.i, label %_ZN2EA4StdC9Stopwatch17GetStopwatchCycleEv.exit.i

if.then.i.i:                                      ; preds = %if.else.i
  %call1.i.i = call i32 @clock_gettime(i32 noundef 0, ptr noundef nonnull %ts.i.i) #7
  br label %_ZN2EA4StdC9Stopwatch17GetStopwatchCycleEv.exit.i

_ZN2EA4StdC9Stopwatch17GetStopwatchCycleEv.exit.i: ; preds = %if.then.i.i, %if.else.i
  %tv_nsec.i.i = getelementptr inbounds nuw i8, ptr %ts.i.i, i64 8
  %6 = load i64, ptr %tv_nsec.i.i, align 8
  %7 = load i64, ptr %ts.i.i, align 8
  %mul.i.i = mul i64 %7, 1000000000
  %add.i.i = add i64 %mul.i.i, %6
  call void @llvm.lifetime.end.p0(i64 16, ptr nonnull %ts.i.i)
  br label %if.end6.sink.split.i

if.end6.sink.split.i:                             ; preds = %_ZN2EA4StdC9Stopwatch17GetStopwatchCycleEv.exit.i, %if.then2.i
  %.sink.i = phi i64 [ %5, %if.then2.i ], [ %add.i.i, %_ZN2EA4StdC9Stopwatch17GetStopwatchCycleEv.exit.i ]
  store i64 %.sink.i, ptr %this, align 8
  br label %if.end

if.end:                                           ; preds = %if.end6.sink.split.i, %_ZN2EA4StdC9Stopwatch17GetStopwatchCycleEv.exit
  ret void
}